target datalayout = "e-m:e-p270:32:32-p271:32:32-p272:64:64-i64:64-i128:128-f80:128-n8:16:32:64-S128"
target triple = "x86_64-pc-linux-gnu"

%struct._lv_chart_t = type { %struct._lv_obj_t, %struct.lv_ll_t, %struct.lv_ll_t, [2 x i32], [2 x i32], [2 x i32], [2 x i32], i32, i32, i32, i32, i8 }
%struct._lv_obj_t = type { ptr, ptr, ptr, ptr, ptr, %struct.lv_area_t, i32, i16, i16 }
%struct.lv_area_t = type { i32, i32, i32, i32 }
%struct.lv_ll_t = type { i32, ptr, ptr }
%struct._lv_chart_series_t = type { ptr, ptr, %struct.lv_color_t, i32, i8 }
%struct.lv_color_t = type { i8, i8, i8 }

; Function Attrs: nounwind uwtable
define void @lv_chart_refresh(ptr noundef %0) #0 {
  %2 = alloca ptr, align 8
  store ptr %0, ptr %2, align 8, !tbaa !3
  br label %3

3:                                                ; preds = %1
  br label %4

4:                                                ; preds = %3
  %5 = load ptr, ptr %2, align 8, !tbaa !3
  call void @lv_obj_invalidate(ptr noundef %5)
  ret void
}

; Function Attrs: nounwind uwtable
define void @lv_chart_set_type(ptr noundef %0, i32 noundef %1) #0 {
  %3 = alloca ptr, align 8
  %4 = alloca i32, align 4
  %5 = alloca ptr, align 8
  %6 = alloca i32, align 4
  %7 = alloca ptr, align 8
  %8 = alloca ptr, align 8
  store ptr %0, ptr %3, align 8, !tbaa !3
  store i32 %1, ptr %4, align 4, !tbaa !7
  br label %9

9:                                                ; preds = %2
  br label %10

10:                                               ; preds = %9
  call void @llvm.lifetime.start.p0(i64 8, ptr %5) #5
  %11 = load ptr, ptr %3, align 8, !tbaa !3
  store ptr %11, ptr %5, align 8, !tbaa !3
  %12 = load ptr, ptr %5, align 8, !tbaa !3
  %13 = getelementptr inbounds nuw %struct._lv_chart_t, ptr %12, i32 0, i32 11
  %14 = load i8, ptr %13, align 8
  %15 = and i8 %14, 7
  %16 = zext i8 %15 to i32
  %17 = load i32, ptr %4, align 4, !tbaa !7
  %18 = icmp eq i32 %16, %17
  br i1 %18, label %19, label %20

19:                                               ; preds = %10
  store i32 1, ptr %6, align 4
  br label %104

20:                                               ; preds = %10
  %21 = load ptr, ptr %5, align 8, !tbaa !3
  %22 = getelementptr inbounds nuw %struct._lv_chart_t, ptr %21, i32 0, i32 11
  %23 = load i8, ptr %22, align 8
  %24 = and i8 %23, 7
  %25 = zext i8 %24 to i32
  %26 = icmp eq i32 %25, 3
  br i1 %26, label %27, label %46

27:                                               ; preds = %20
  call void @llvm.lifetime.start.p0(i64 8, ptr %7) #5
  %28 = load ptr, ptr %5, align 8, !tbaa !3
  %29 = getelementptr inbounds nuw %struct._lv_chart_t, ptr %28, i32 0, i32 1
  %30 = call ptr @lv_ll_get_tail(ptr noundef %29)
  store ptr %30, ptr %7, align 8, !tbaa !3
  br label %31

31:                                               ; preds = %40, %27
  %32 = load ptr, ptr %7, align 8, !tbaa !3
  %33 = icmp ne ptr %32, null
  br i1 %33, label %34, label %45

34:                                               ; preds = %31
  %35 = load ptr, ptr %7, align 8, !tbaa !3
  %36 = getelementptr inbounds nuw %struct._lv_chart_series_t, ptr %35, i32 0, i32 0
  %37 = load ptr, ptr %36, align 8, !tbaa !24
  call void @lv_free(ptr noundef %37)
  %38 = load ptr, ptr %7, align 8, !tbaa !3
  %39 = getelementptr inbounds nuw %struct._lv_chart_series_t, ptr %38, i32 0, i32 0
  store ptr null, ptr %39, align 8, !tbaa !24
  br label %40

40:                                               ; preds = %34
  %41 = load ptr, ptr %5, align 8, !tbaa !3
  %42 = getelementptr inbounds nuw %struct._lv_chart_t, ptr %41, i32 0, i32 1
  %43 = load ptr, ptr %7, align 8, !tbaa !3
  %44 = call ptr @lv_ll_get_prev(ptr noundef %42, ptr noundef %43)
  store ptr %44, ptr %7, align 8, !tbaa !3
  br label %31, !llvm.loop !30

45:                                               ; preds = %31
  call void @llvm.lifetime.end.p0(i64 8, ptr %7) #5
  br label %46

46:                                               ; preds = %45, %20
  %47 = load i32, ptr %4, align 4, !tbaa !7
  %48 = icmp eq i32 %47, 3
  br i1 %48, label %49, label %94

49:                                               ; preds = %46
  call void @llvm.lifetime.start.p0(i64 8, ptr %8) #5
  %50 = load ptr, ptr %5, align 8, !tbaa !3
  %51 = getelementptr inbounds nuw %struct._lv_chart_t, ptr %50, i32 0, i32 1
  %52 = call ptr @lv_ll_get_tail(ptr noundef %51)
  store ptr %52, ptr %8, align 8, !tbaa !3
  br label %53

53:                                               ; preds = %85, %49
  %54 = load ptr, ptr %8, align 8, !tbaa !3
  %55 = icmp ne ptr %54, null
  br i1 %55, label %56, label %90

56:                                               ; preds = %53
  %57 = load ptr, ptr %5, align 8, !tbaa !3
  %58 = getelementptr inbounds nuw %struct._lv_chart_t, ptr %57, i32 0, i32 10
  %59 = load i32, ptr %58, align 4, !tbaa !16
  %60 = zext i32 %59 to i64
  %61 = mul i64 8, %60
  %62 = call ptr @lv_malloc(i64 noundef %61)
  %63 = load ptr, ptr %8, align 8, !tbaa !3
  %64 = getelementptr inbounds nuw %struct._lv_chart_series_t, ptr %63, i32 0, i32 0
  store ptr %62, ptr %64, align 8, !tbaa !24
  br label %65

65:                                               ; preds = %56
  %66 = load ptr, ptr %8, align 8, !tbaa !3
  %67 = getelementptr inbounds nuw %struct._lv_chart_series_t, ptr %66, i32 0, i32 0
  %68 = load ptr, ptr %67, align 8, !tbaa !24
  %69 = icmp ne ptr %68, null
  br i1 %69, label %76, label %70

70:                                               ; preds = %65
  br label %71

71:                                               ; preds = %70
  br label %72

72:                                               ; preds = %71
  br label %73

73:                                               ; preds = %72
  br label %74

74:                                               ; preds = %75, %73
  br label %75

75:                                               ; preds = %74
  br label %74

76:                                               ; preds = %65
  br label %77

77:                                               ; preds = %76
  br label %78

78:                                               ; preds = %77
  %79 = load ptr, ptr %8, align 8, !tbaa !3
  %80 = getelementptr inbounds nuw %struct._lv_chart_series_t, ptr %79, i32 0, i32 0
  %81 = load ptr, ptr %80, align 8, !tbaa !24
  %82 = icmp eq ptr %81, null
  br i1 %82, label %83, label %84

83:                                               ; preds = %78
  store i32 1, ptr %6, align 4
  br label %91

84:                                               ; preds = %78
  br label %85

85:                                               ; preds = %84
  %86 = load ptr, ptr %5, align 8, !tbaa !3
  %87 = getelementptr inbounds nuw %struct._lv_chart_t, ptr %86, i32 0, i32 1
  %88 = load ptr, ptr %8, align 8, !tbaa !3
  %89 = call ptr @lv_ll_get_prev(ptr noundef %87, ptr noundef %88)
  store ptr %89, ptr %8, align 8, !tbaa !3
  br label %53, !llvm.loop !31

90:                                               ; preds = %53
  store i32 0, ptr %6, align 4
  br label %91

91:                                               ; preds = %90, %83
  call void @llvm.lifetime.end.p0(i64 8, ptr %8) #5
  %92 = load i32, ptr %6, align 4
  switch i32 %92, label %104 [
    i32 0, label %93
  ]

93:                                               ; preds = %91
  br label %94

94:                                               ; preds = %93, %46
  %95 = load i32, ptr %4, align 4, !tbaa !7
  %96 = load ptr, ptr %5, align 8, !tbaa !3
  %97 = getelementptr inbounds nuw %struct._lv_chart_t, ptr %96, i32 0, i32 11
  %98 = trunc i32 %95 to i8
  %99 = load i8, ptr %97, align 8
  %100 = and i8 %98, 7
  %101 = and i8 %99, -8
  %102 = or i8 %101, %100
  store i8 %102, ptr %97, align 8
  %103 = load ptr, ptr %3, align 8, !tbaa !3
  call void @lv_chart_refresh(ptr noundef %103)
  store i32 0, ptr %6, align 4
  br label %104

104:                                              ; preds = %94, %91, %19
  call void @llvm.lifetime.end.p0(i64 8, ptr %5) #5
  %105 = load i32, ptr %6, align 4
  switch i32 %105, label %107 [
    i32 0, label %106
    i32 1, label %106
  ]

106:                                              ; preds = %104, %104
  ret void

107:                                              ; preds = %104
  unreachable
}