; Function Attrs: nounwind uwtable
define void @lv_chart_set_type(ptr noundef %0, i32 noundef %1) local_unnamed_addr #0 {
  %3 = getelementptr inbounds nuw i8, ptr %0, i64 160
  %4 = load i8, ptr %3, align 8
  %5 = and i8 %4, 7
  %6 = zext nneg i8 %5 to i32
  %7 = icmp eq i32 %1, %6
  br i1 %7, label %32, label %8

8:                                                ; preds = %2
  %9 = icmp eq i8 %5, 3
  br i1 %9, label %10, label %.loopexit28

10:                                               ; preds = %8
  %11 = getelementptr inbounds nuw i8, ptr %0, i64 64
  %12 = tail call ptr @lv_ll_get_tail(ptr noundef nonnull %11) #8
  %.not29 = icmp eq ptr %12, null
  br i1 %.not29, label %.loopexit28, label %.lr.ph

.lr.ph:                                           ; preds = %10, %.lr.ph
  %.02230 = phi ptr [ %14, %.lr.ph ], [ %12, %10 ]
  %13 = load ptr, ptr %.02230, align 8, !tbaa !21
  tail call void @lv_free(ptr noundef %13) #8
  store ptr null, ptr %.02230, align 8, !tbaa !21
  %14 = tail call ptr @lv_ll_get_prev(ptr noundef nonnull %11, ptr noundef nonnull %.02230) #8
  %.not = icmp eq ptr %14, null
  br i1 %.not, label %.loopexit28, label %.lr.ph, !llvm.loop !64

.loopexit28:                                      ; preds = %.lr.ph, %10, %8
  %15 = icmp eq i32 %1, 3
  br i1 %15, label %16, label %.loopexit

16:                                               ; preds = %.loopexit28
  %17 = getelementptr inbounds nuw i8, ptr %0, i64 64
  %18 = tail call ptr @lv_ll_get_tail(ptr noundef nonnull %17) #8
  %.not2631 = icmp eq ptr %18, null
  br i1 %.not2631, label %.loopexit, label %.lr.ph33

.lr.ph33:                                         ; preds = %16
  %19 = getelementptr inbounds nuw i8, ptr %0, i64 156
  br label %20

20:                                               ; preds = %.lr.ph33, %25
  %.032 = phi ptr [ %18, %.lr.ph33 ], [ %26, %25 ]
  %21 = load i32, ptr %19, align 4, !tbaa !15
  %22 = zext i32 %21 to i64
  %23 = shl nuw nsw i64 %22, 3
  %24 = tail call ptr @lv_malloc(i64 noundef %23) #8
  store ptr %24, ptr %.032, align 8, !tbaa !21
  %.not27 = icmp eq ptr %24, null
  br i1 %.not27, label %.preheader, label %25

.preheader:                                       ; preds = %20, %.preheader
  br label %.preheader

25:                                               ; preds = %20
  %26 = tail call ptr @lv_ll_get_prev(ptr noundef nonnull %17, ptr noundef nonnull %.032) #8
  %.not26 = icmp eq ptr %26, null
  br i1 %.not26, label %.loopexit, label %20, !llvm.loop !65

.loopexit:                                        ; preds = %25, %16, %.loopexit28
  %27 = trunc i32 %1 to i8
  %28 = load i8, ptr %3, align 8
  %29 = and i8 %27, 7
  %30 = and i8 %28, -8
  %31 = or disjoint i8 %30, %29
  store i8 %31, ptr %3, align 8
  tail call void @lv_obj_invalidate(ptr noundef %0) #8
  br label %32

32:                                               ; preds = %2, %.loopexit
  ret void
}